target datalayout = "e-m:e-p270:32:32-p271:32:32-p272:64:64-i64:64-i128:128-f80:128-n8:16:32:64-S128"
target triple = "x86_64-pc-linux-gnu"

%struct.hb_object_header_t = type { %struct.hb_reference_count_t, %struct.hb_atomic_int_t, %struct.hb_atomic_ptr_t }
%struct.hb_reference_count_t = type { %struct.hb_atomic_int_t }
%struct.hb_atomic_int_t = type { i32 }
%struct.hb_atomic_ptr_t = type { ptr }
%struct.face_table_info_t = type { ptr, i32 }
%struct.hb_pair_t = type { i32, %struct.face_table_info_t }
%struct.hb_blob_t = type { %struct.hb_object_header_t, ptr, i32, i32, ptr, ptr }

; Function Attrs: mustprogress nounwind uwtable
define internal noundef i32 @_ZL15compare_entriesPKvS0_(ptr noundef %0, ptr noundef %1) #3 {
  %3 = alloca i32, align 4
  %4 = alloca ptr, align 8
  %5 = alloca ptr, align 8
  %6 = alloca ptr, align 8
  %7 = alloca ptr, align 8
  store ptr %0, ptr %4, align 8
  store ptr %1, ptr %5, align 8
  %8 = load ptr, ptr %4, align 8
  store ptr %8, ptr %6, align 8
  %9 = load ptr, ptr %5, align 8
  store ptr %9, ptr %7, align 8
  %10 = load ptr, ptr %6, align 8
  %11 = getelementptr inbounds %struct.hb_pair_t, ptr %10, i32 0, i32 1
  %12 = getelementptr inbounds %struct.face_table_info_t, ptr %11, i32 0, i32 1
  %13 = load i32, ptr %12, align 8
  %14 = load ptr, ptr %7, align 8
  %15 = getelementptr inbounds %struct.hb_pair_t, ptr %14, i32 0, i32 1
  %16 = getelementptr inbounds %struct.face_table_info_t, ptr %15, i32 0, i32 1
  %17 = load i32, ptr %16, align 8
  %18 = icmp ne i32 %13, %17
  br i1 %18, label %19, label %30

19:                                               ; preds = %2
  %20 = load ptr, ptr %6, align 8
  %21 = getelementptr inbounds %struct.hb_pair_t, ptr %20, i32 0, i32 1
  %22 = getelementptr inbounds %struct.face_table_info_t, ptr %21, i32 0, i32 1
  %23 = load i32, ptr %22, align 8
  %24 = load ptr, ptr %7, align 8
  %25 = getelementptr inbounds %struct.hb_pair_t, ptr %24, i32 0, i32 1
  %26 = getelementptr inbounds %struct.face_table_info_t, ptr %25, i32 0, i32 1
  %27 = load i32, ptr %26, align 8
  %28 = icmp slt i32 %23, %27
  %29 = select i1 %28, i32 -1, i32 1
  store i32 %29, ptr %3, align 4
  br label %79

30:                                               ; preds = %2
  %31 = load ptr, ptr %6, align 8
  %32 = getelementptr inbounds %struct.hb_pair_t, ptr %31, i32 0, i32 1
  %33 = getelementptr inbounds %struct.face_table_info_t, ptr %32, i32 0, i32 0
  %34 = load ptr, ptr %33, align 8
  %35 = getelementptr inbounds %struct.hb_blob_t, ptr %34, i32 0, i32 2
  %36 = load i32, ptr %35, align 8
  %37 = load ptr, ptr %7, align 8
  %38 = getelementptr inbounds %struct.hb_pair_t, ptr %37, i32 0, i32 1
  %39 = getelementptr inbounds %struct.face_table_info_t, ptr %38, i32 0, i32 0
  %40 = load ptr, ptr %39, align 8
  %41 = getelementptr inbounds %struct.hb_blob_t, ptr %40, i32 0, i32 2
  %42 = load i32, ptr %41, align 8
  %43 = icmp ne i32 %36, %42
  br i1 %43, label %44, label %59

44:                                               ; preds = %30
  %45 = load ptr, ptr %6, align 8
  %46 = getelementptr inbounds %struct.hb_pair_t, ptr %45, i32 0, i32 1
  %47 = getelementptr inbounds %struct.face_table_info_t, ptr %46, i32 0, i32 0
  %48 = load ptr, ptr %47, align 8
  %49 = getelementptr inbounds %struct.hb_blob_t, ptr %48, i32 0, i32 2
  %50 = load i32, ptr %49, align 8
  %51 = load ptr, ptr %7, align 8
  %52 = getelementptr inbounds %struct.hb_pair_t, ptr %51, i32 0, i32 1
  %53 = getelementptr inbounds %struct.face_table_info_t, ptr %52, i32 0, i32 0
  %54 = load ptr, ptr %53, align 8
  %55 = getelementptr inbounds %struct.hb_blob_t, ptr %54, i32 0, i32 2
  %56 = load i32, ptr %55, align 8
  %57 = icmp ult i32 %50, %56
  %58 = select i1 %57, i32 -1, i32 1
  store i32 %58, ptr %3, align 4
  br label %79

59:                                               ; preds = %30
  %60 = load ptr, ptr %6, align 8
  %61 = getelementptr inbounds %struct.hb_pair_t, ptr %60, i32 0, i32 0
  %62 = load i32, ptr %61, align 8
  %63 = load ptr, ptr %7, align 8
  %64 = getelementptr inbounds %struct.hb_pair_t, ptr %63, i32 0, i32 0
  %65 = load i32, ptr %64, align 8
  %66 = icmp ult i32 %62, %65
  br i1 %66, label %67, label %68

67:                                               ; preds = %59
  br label %77

68:                                               ; preds = %59
  %69 = load ptr, ptr %6, align 8
  %70 = getelementptr inbounds %struct.hb_pair_t, ptr %69, i32 0, i32 0
  %71 = load i32, ptr %70, align 8
  %72 = load ptr, ptr %7, align 8
  %73 = getelementptr inbounds %struct.hb_pair_t, ptr %72, i32 0, i32 0
  %74 = load i32, ptr %73, align 8
  %75 = icmp eq i32 %71, %74
  %76 = select i1 %75, i32 0, i32 1
  br label %77

77:                                               ; preds = %68, %67
  %78 = phi i32 [ -1, %67 ], [ %76, %68 ]
  store i32 %78, ptr %3, align 4
  br label %79

79:                                               ; preds = %77, %44, %19
  %80 = load i32, ptr %3, align 4
  ret i32 %80
}