; Function Attrs: mustprogress nofree norecurse nosync nounwind willreturn memory(read, inaccessiblemem: none) uwtable
define internal noundef range(i32 -1, 2) i32 @_ZL15compare_entriesPKvS0_(ptr nocapture noundef readonly %0, ptr nocapture noundef readonly %1) #6 {
  %3 = getelementptr inbounds i8, ptr %0, i64 16
  %4 = load i32, ptr %3, align 8
  %5 = getelementptr inbounds i8, ptr %1, i64 16
  %6 = load i32, ptr %5, align 8
  %.not = icmp eq i32 %4, %6
  br i1 %.not, label %10, label %7

7:                                                ; preds = %2
  %8 = icmp slt i32 %4, %6
  %9 = select i1 %8, i32 -1, i32 1
  br label %29

10:                                               ; preds = %2
  %11 = getelementptr inbounds i8, ptr %1, i64 8
  %12 = getelementptr inbounds i8, ptr %0, i64 8
  %13 = load ptr, ptr %12, align 8
  %14 = getelementptr inbounds i8, ptr %13, i64 24
  %15 = load i32, ptr %14, align 8
  %16 = load ptr, ptr %11, align 8
  %17 = getelementptr inbounds i8, ptr %16, i64 24
  %18 = load i32, ptr %17, align 8
  %.not20 = icmp eq i32 %15, %18
  br i1 %.not20, label %22, label %19

19:                                               ; preds = %10
  %20 = icmp ult i32 %15, %18
  %21 = select i1 %20, i32 -1, i32 1
  br label %29

22:                                               ; preds = %10
  %23 = load i32, ptr %0, align 8
  %24 = load i32, ptr %1, align 8
  %25 = icmp ult i32 %23, %24
  %26 = icmp ne i32 %23, %24
  %27 = zext i1 %26 to i32
  %28 = select i1 %25, i32 -1, i32 %27
  br label %29

29:                                               ; preds = %22, %19, %7
  %.0 = phi i32 [ %9, %7 ], [ %21, %19 ], [ %28, %22 ]
  ret i32 %.0
}